; Function Attrs: mustprogress nounwind uwtable
define internal fastcc noundef range(i32 0, 4) i32 @_ZN12_GLOBAL__N_116getExistingStyleEN4llvm9StringRefE(ptr %0, i64 %1) unnamed_addr #0 {
  %3 = alloca %"class.llvm::StringRef", align 8
  store ptr %0, ptr %3, align 8
  %4 = getelementptr inbounds nuw i8, ptr %3, i64 8
  store i64 %1, ptr %4, align 8
  %5 = call noundef i64 @_ZNK4llvm9StringRef13find_first_ofES0_m(ptr noundef nonnull align 8 dereferenceable(16) %3, ptr nonnull @.str.20, i64 2, i64 noundef 0) #27
  %.not = icmp eq i64 %5, -1
  br i1 %.not, label %12, label %6

6:                                                ; preds = %2
  %7 = load ptr, ptr %3, align 8
  %8 = getelementptr inbounds i8, ptr %7, i64 %5
  %9 = load i8, ptr %8, align 1
  %10 = icmp eq i8 %9, 47
  %11 = select i1 %10, i32 1, i32 3
  br label %12

12:                                               ; preds = %6, %2
  %.0 = phi i32 [ %11, %6 ], [ 0, %2 ]
  ret i32 %.0
}